; Function Attrs: mustprogress uwtable
define void @_ZN3gmx30AnalysisDataDisplacementModule12dataFinishedEv(ptr noundef nonnull align 8 dereferenceable(32) %0) unnamed_addr #1 align 2 {
  %2 = getelementptr inbounds i8, ptr %0, i64 24
  %3 = load ptr, ptr %2, align 8
  %4 = getelementptr inbounds i8, ptr %3, i64 36
  %5 = load i32, ptr %4, align 4
  %6 = icmp sgt i32 %5, 1
  br i1 %6, label %7, label %9

7:                                                ; preds = %1
  %8 = tail call noundef nonnull align 8 dereferenceable(8) ptr @_ZN3gmx20AbstractAnalysisData13moduleManagerEv(ptr noundef nonnull align 8 dereferenceable(16) %0)
  tail call void @_ZNK3gmx25AnalysisDataModuleManager16notifyDataFinishEv(ptr noundef nonnull align 8 dereferenceable(8) %8)
  br label %9

9:                                                ; preds = %7, %1
  ret void
}